; Function Attrs: nofree norecurse nosync nounwind memory(read, argmem: readwrite, inaccessiblemem: none) uwtable
define void @Sfm_DecVarCost(ptr noundef readonly captures(none) %0, ptr noundef readonly captures(none) %1, i32 noundef %2, ptr noundef writeonly captures(none) %3) local_unnamed_addr #9 {
  %5 = shl nsw i32 %2, 3
  %6 = sext i32 %5 to i64
  %7 = getelementptr inbounds nuw i8, ptr %0, i64 480
  %8 = getelementptr i8, ptr %0, i64 448
  br label %9

9:                                                ; preds = %4, %Abc_TtCountOnesVecMask.exit
  %10 = phi i1 [ true, %4 ], [ false, %Abc_TtCountOnesVecMask.exit ]
  %indvars.iv = phi i64 [ 0, %4 ], [ 1, %Abc_TtCountOnesVecMask.exit ]
  %11 = shl nuw nsw i64 %indvars.iv, 4
  %12 = getelementptr i8, ptr %8, i64 %11
  %.val.i = load ptr, ptr %12, align 8, !tbaa !87
  %13 = getelementptr inbounds i64, ptr %.val.i, i64 %6
  %14 = getelementptr inbounds nuw [8 x i64], ptr %1, i64 %indvars.iv
  %15 = getelementptr inbounds nuw [2 x i32], ptr %7, i64 0, i64 %indvars.iv
  %16 = load i32, ptr %15, align 4, !tbaa !96
  %17 = icmp sgt i32 %16, 0
  br i1 %17, label %.lr.ph.preheader.i, label %Abc_TtCountOnesVecMask.exit

.lr.ph.preheader.i:                               ; preds = %9
  %wide.trip.count.i = zext nneg i32 %16 to i64
  br label %.lr.ph.i

.lr.ph.i:                                         ; preds = %Abc_TtCountOnes2.exit.i, %.lr.ph.preheader.i
  %indvars.iv.i = phi i64 [ 0, %.lr.ph.preheader.i ], [ %indvars.iv.next.i, %Abc_TtCountOnes2.exit.i ]
  %.08.i = phi i32 [ 0, %.lr.ph.preheader.i ], [ %40, %Abc_TtCountOnes2.exit.i ]
  %18 = getelementptr inbounds nuw i64, ptr %14, i64 %indvars.iv.i
  %19 = load i64, ptr %18, align 8, !tbaa !73
  %.not.i.i = icmp eq i64 %19, 0
  br i1 %.not.i.i, label %Abc_TtCountOnes2.exit.i, label %20

20:                                               ; preds = %.lr.ph.i
  %21 = lshr i64 %19, 1
  %22 = and i64 %21, 6148914691236517205
  %23 = sub i64 %19, %22
  %24 = and i64 %23, 3689348814741910323
  %25 = lshr i64 %23, 2
  %26 = and i64 %25, 3689348814741910323
  %27 = add nuw nsw i64 %26, %24
  %28 = lshr i64 %27, 4
  %29 = add nuw nsw i64 %28, %27
  %30 = and i64 %29, 1085102592571150095
  %31 = lshr i64 %30, 8
  %32 = add nuw nsw i64 %31, %30
  %33 = lshr i64 %32, 16
  %34 = add nuw nsw i64 %33, %32
  %35 = lshr i64 %34, 32
  %36 = add nuw nsw i64 %35, %34
  %37 = trunc i64 %36 to i32
  %38 = and i32 %37, 255
  br label %Abc_TtCountOnes2.exit.i

Abc_TtCountOnes2.exit.i:                          ; preds = %20, %.lr.ph.i
  %39 = phi i32 [ %38, %20 ], [ 0, %.lr.ph.i ]
  %40 = add nuw nsw i32 %39, %.08.i
  %indvars.iv.next.i = add nuw nsw i64 %indvars.iv.i, 1
  %exitcond.not.i = icmp eq i64 %indvars.iv.next.i, %wide.trip.count.i
  br i1 %exitcond.not.i, label %.lr.ph27.i, label %.lr.ph.i, !llvm.loop !113

.lr.ph27.i:                                       ; preds = %Abc_TtCountOnes2.exit.i, %Abc_TtCountOnes2.exit20.i
  %indvars.iv32.i = phi i64 [ %indvars.iv.next33.i, %Abc_TtCountOnes2.exit20.i ], [ 0, %Abc_TtCountOnes2.exit.i ]
  %.226.i = phi i32 [ %66, %Abc_TtCountOnes2.exit20.i ], [ 0, %Abc_TtCountOnes2.exit.i ]
  %41 = getelementptr inbounds nuw i64, ptr %14, i64 %indvars.iv32.i
  %42 = load i64, ptr %41, align 8, !tbaa !73
  %43 = getelementptr inbounds nuw i64, ptr %13, i64 %indvars.iv32.i
  %44 = load i64, ptr %43, align 8, !tbaa !73
  %45 = and i64 %44, %42
  %.not.i19.i = icmp eq i64 %45, 0
  br i1 %.not.i19.i, label %Abc_TtCountOnes2.exit20.i, label %46

46:                                               ; preds = %.lr.ph27.i
  %47 = lshr i64 %45, 1
  %48 = and i64 %47, 6148914691236517205
  %49 = sub i64 %45, %48
  %50 = and i64 %49, 3689348814741910323
  %51 = lshr i64 %49, 2
  %52 = and i64 %51, 3689348814741910323
  %53 = add nuw nsw i64 %52, %50
  %54 = lshr i64 %53, 4
  %55 = add nuw nsw i64 %54, %53
  %56 = and i64 %55, 1085102592571150095
  %57 = lshr i64 %56, 8
  %58 = add nuw nsw i64 %57, %56
  %59 = lshr i64 %58, 16
  %60 = add nuw nsw i64 %59, %58
  %61 = lshr i64 %60, 32
  %62 = add nuw nsw i64 %61, %60
  %63 = trunc i64 %62 to i32
  %64 = and i32 %63, 255
  br label %Abc_TtCountOnes2.exit20.i

Abc_TtCountOnes2.exit20.i:                        ; preds = %46, %.lr.ph27.i
  %65 = phi i32 [ %64, %46 ], [ 0, %.lr.ph27.i ]
  %66 = add nuw nsw i32 %65, %.226.i
  %indvars.iv.next33.i = add nuw nsw i64 %indvars.iv32.i, 1
  %exitcond36.not.i = icmp eq i64 %indvars.iv.next33.i, %wide.trip.count.i
  br i1 %exitcond36.not.i, label %Abc_TtCountOnesVecMask.exit, label %.lr.ph27.i, !llvm.loop !104

Abc_TtCountOnesVecMask.exit:                      ; preds = %Abc_TtCountOnes2.exit20.i, %9
  %.0.lcssa.i21 = phi i32 [ 0, %9 ], [ %40, %Abc_TtCountOnes2.exit20.i ]
  %.1.i = phi i32 [ 0, %9 ], [ %66, %Abc_TtCountOnes2.exit20.i ]
  %67 = getelementptr inbounds nuw [2 x i32], ptr %3, i64 %indvars.iv
  %68 = getelementptr inbounds nuw i8, ptr %67, i64 4
  store i32 %.1.i, ptr %68, align 4, !tbaa !96
  %69 = sub nsw i32 %.0.lcssa.i21, %.1.i
  store i32 %69, ptr %67, align 4, !tbaa !96
  br i1 %10, label %9, label %70, !llvm.loop !114

70:                                               ; preds = %Abc_TtCountOnesVecMask.exit
  ret void
}